; Function Attrs: nounwind uwtable
define ptr @l_Lean_PrettyPrinter_Delaborator_SubExpr_withBindingBody_x27___at_Lean_PrettyPrinter_Delaborator_TopDownAnalyze_analyze_analyzeLam___spec__3___rarg(ptr noundef %0, ptr noundef %1, ptr noundef %2, ptr noundef %3, ptr noundef %4, ptr noundef %5, ptr noundef %6, ptr noundef %7, ptr noundef %8, ptr noundef %9) #1 {
  %11 = ptrtoint ptr %3 to i64
  %12 = and i64 %11, 1
  %.not = icmp eq i64 %12, 0
  br i1 %.not, label %13, label %lean_inc.exit34

13:                                               ; preds = %10
  %.val.i = load i32, ptr %3, align 4, !tbaa !8
  %14 = icmp sgt i32 %.val.i, 0
  br i1 %14, label %15, label %17, !prof !13

15:                                               ; preds = %13
  %16 = add nuw i32 %.val.i, 1
  store i32 %16, ptr %3, align 4, !tbaa !8
  br label %lean_inc.exit34

17:                                               ; preds = %13
  %.not.i35 = icmp eq i32 %.val.i, 0
  br i1 %.not.i35, label %lean_inc.exit34, label %18

18:                                               ; preds = %17
  tail call void @lean_inc_ref_cold(ptr noundef nonnull %3) #7
  br label %lean_inc.exit34

lean_inc.exit34:                                  ; preds = %18, %17, %15, %10
  %19 = tail call ptr @l_Lean_PrettyPrinter_Delaborator_SubExpr_getExpr___at_Lean_PrettyPrinter_Delaborator_TopDownAnalyze_analyze_maybeAddBlockImplicit___spec__1(ptr noundef %3, ptr poison, ptr poison, ptr poison, ptr poison, ptr poison, ptr noundef %9)
  %20 = getelementptr inbounds nuw i8, ptr %19, i64 8
  %21 = load ptr, ptr %20, align 8, !tbaa !11
  %22 = ptrtoint ptr %21 to i64
  %23 = and i64 %22, 1
  %.not42 = icmp eq i64 %23, 0
  br i1 %.not42, label %24, label %lean_inc.exit33

24:                                               ; preds = %lean_inc.exit34
  %.val.i36 = load i32, ptr %21, align 4, !tbaa !8
  %25 = icmp sgt i32 %.val.i36, 0
  br i1 %25, label %26, label %28, !prof !13

26:                                               ; preds = %24
  %27 = add nuw i32 %.val.i36, 1
  store i32 %27, ptr %21, align 4, !tbaa !8
  br label %lean_inc.exit33

28:                                               ; preds = %24
  %.not.i37 = icmp eq i32 %.val.i36, 0
  br i1 %.not.i37, label %lean_inc.exit33, label %29

29:                                               ; preds = %28
  tail call void @lean_inc_ref_cold(ptr noundef nonnull %21) #7
  br label %lean_inc.exit33

lean_inc.exit33:                                  ; preds = %29, %28, %26, %lean_inc.exit34
  %30 = getelementptr inbounds nuw i8, ptr %19, i64 16
  %31 = load ptr, ptr %30, align 8, !tbaa !11
  %32 = ptrtoint ptr %31 to i64
  %33 = and i64 %32, 1
  %.not43 = icmp eq i64 %33, 0
  br i1 %.not43, label %34, label %lean_inc.exit

34:                                               ; preds = %lean_inc.exit33
  %.val.i39 = load i32, ptr %31, align 4, !tbaa !8
  %35 = icmp sgt i32 %.val.i39, 0
  br i1 %35, label %36, label %38, !prof !13

36:                                               ; preds = %34
  %37 = add nuw i32 %.val.i39, 1
  store i32 %37, ptr %31, align 4, !tbaa !8
  br label %lean_inc.exit

38:                                               ; preds = %34
  %.not.i40 = icmp eq i32 %.val.i39, 0
  br i1 %.not.i40, label %lean_inc.exit, label %39

39:                                               ; preds = %38
  tail call void @lean_inc_ref_cold(ptr noundef nonnull %31) #7
  br label %lean_inc.exit

lean_inc.exit:                                    ; preds = %39, %38, %36, %lean_inc.exit33
  %40 = ptrtoint ptr %19 to i64
  %41 = and i64 %40, 1
  %.not44 = icmp eq i64 %41, 0
  br i1 %.not44, label %42, label %lean_dec.exit

42:                                               ; preds = %lean_inc.exit
  %43 = load i32, ptr %19, align 4, !tbaa !8
  %44 = icmp sgt i32 %43, 1
  br i1 %44, label %45, label %47, !prof !13

45:                                               ; preds = %42
  %46 = add nsw i32 %43, -1
  store i32 %46, ptr %19, align 4, !tbaa !8
  br label %lean_dec.exit

47:                                               ; preds = %42
  %.not.i = icmp eq i32 %43, 0
  br i1 %.not.i, label %lean_dec.exit, label %48

48:                                               ; preds = %47
  tail call void @lean_dec_ref_cold(ptr noundef nonnull %19) #7
  br label %lean_dec.exit

lean_dec.exit:                                    ; preds = %48, %47, %45, %lean_inc.exit
  %49 = tail call zeroext i8 @l_Lean_Expr_binderInfo(ptr noundef %21) #7
  %50 = tail call ptr @l_Lean_Expr_bindingDomain_x21(ptr noundef %21) #7
  tail call void @lean_inc_heartbeat() #7
  %51 = tail call noalias ptr @mi_malloc_small(i64 noundef 48) #7
  %52 = icmp eq ptr %51, null
  br i1 %52, label %53, label %lean_alloc_closure.exit

53:                                               ; preds = %lean_dec.exit
  tail call void @lean_internal_panic_out_of_memory() #8
  unreachable

lean_alloc_closure.exit:                          ; preds = %lean_dec.exit
  %54 = getelementptr inbounds nuw i8, ptr %51, i64 4
  store i32 1, ptr %51, align 4, !tbaa !8
  store i32 -184549328, ptr %54, align 4
  %55 = getelementptr inbounds nuw i8, ptr %51, i64 8
  store ptr @l_Lean_PrettyPrinter_Delaborator_SubExpr_withBindingBody_x27___at_Lean_PrettyPrinter_Delaborator_TopDownAnalyze_analyze_analyzeLam___spec__3___rarg___lambda__1___boxed, ptr %55, align 8, !tbaa !11
  %56 = getelementptr inbounds nuw i8, ptr %51, i64 16
  store i16 11, ptr %56, align 8, !tbaa !15
  %57 = getelementptr inbounds nuw i8, ptr %51, i64 18
  store i16 3, ptr %57, align 2, !tbaa !15
  %58 = getelementptr inbounds nuw i8, ptr %51, i64 24
  store ptr %1, ptr %58, align 8, !tbaa !11
  %59 = getelementptr inbounds nuw i8, ptr %51, i64 32
  store ptr %21, ptr %59, align 8, !tbaa !11
  %60 = getelementptr inbounds nuw i8, ptr %51, i64 40
  store ptr %2, ptr %60, align 8, !tbaa !11
  %61 = tail call ptr @l_Lean_Meta_withLocalDecl___at_Lean_PrettyPrinter_Delaborator_TopDownAnalyze_analyze_analyzeLam___spec__4___rarg(ptr noundef %0, i8 noundef zeroext %49, ptr noundef %50, ptr noundef nonnull %51, i8 noundef zeroext 0, ptr noundef %3, ptr noundef %4, ptr noundef %5, ptr noundef %6, ptr noundef %7, ptr noundef %8, ptr noundef %31)
  ret ptr %61
}